target datalayout = "e-m:e-p270:32:32-p271:32:32-p272:64:64-i64:64-i128:128-f80:128-n8:16:32:64-S128"
target triple = "x86_64-pc-linux-gnu"

%struct.Node = type { i32 }
%struct.ParseState = type { ptr, ptr, i32, i32, ptr, ptr, ptr, ptr, ptr, ptr, i8, ptr, ptr, ptr, ptr, ptr, ptr, i8, ptr, i32, i32, ptr, ptr, i8, i8, ptr, i8, i8, i8, i8, i8, ptr, ptr, ptr, ptr, ptr, ptr }
%struct.ForEachState = type { ptr, i32 }
%struct.List = type { i32, i32, i32, ptr, [0 x %union.ListCell] }
%union.ListCell = type { ptr }
%struct.ResTarget = type { i32, ptr, ptr, ptr, i32 }
%struct.RelationData = type { %struct.RelFileLocator, ptr, i32, i32, i8, i8, i8, i8, i8, i32, i32, i32, i32, ptr, ptr, i32, %struct.LockInfoData, ptr, ptr, ptr, ptr, ptr, i8, ptr, ptr, ptr, ptr, ptr, ptr, i32, ptr, i8, ptr, ptr, i32, i8, i32, ptr, i8, ptr, ptr, ptr, ptr, ptr, ptr, ptr, i32, ptr, ptr, ptr, ptr, ptr, ptr, ptr, ptr, ptr, ptr, ptr, ptr, ptr, ptr, ptr, ptr, ptr, ptr, ptr, i32, i8, ptr }
%struct.RelFileLocator = type { i32, i32, i32 }
%struct.LockInfoData = type { %struct.LockRelId }
%struct.LockRelId = type { i32, i32 }
%struct.FormData_pg_attribute = type { i32, %struct.nameData, i32, i16, i16, i32, i16, i8, i8, i8, i8, i8, i8, i8, i8, i8, i8, i8, i16, i32 }
%struct.nameData = type { [64 x i8] }
%struct.TupleDescData = type { i32, i32, i32, i32, ptr, [0 x %struct.CompactAttribute] }
%struct.CompactAttribute = type { i32, i16, i8, i8, i8, i8, i8, i8, i8 }
%struct.FormData_pg_class = type { i32, %struct.nameData, i32, i32, i32, i32, i32, i32, i32, i32, float, i32, i32, i8, i8, i8, i8, i16, i16, i8, i8, i8, i8, i8, i8, i8, i8, i32, i32, i32 }

@.str.1 = private unnamed_addr constant [15 x i8] c"parse_target.c\00", align 1
@.str.11 = private unnamed_addr constant [44 x i8] c"column \22%s\22 of relation \22%s\22 does not exist\00", align 1
@__func__.checkInsertTargets = private unnamed_addr constant [19 x i8] c"checkInsertTargets\00", align 1
@.str.12 = private unnamed_addr constant [37 x i8] c"column \22%s\22 specified more than once\00", align 1

; Function Attrs: inlinehint nounwind uwtable
define internal ptr @newNode(i64 noundef %0, i32 noundef %1) #4 {
  %3 = alloca i64, align 8
  %4 = alloca i32, align 4
  %5 = alloca ptr, align 8
  store i64 %0, ptr %3, align 8
  store i32 %1, ptr %4, align 4
  call void @llvm.lifetime.start.p0(i64 8, ptr %5) #8
  %6 = load i64, ptr %3, align 8
  %7 = call ptr @palloc0(i64 noundef %6)
  store ptr %7, ptr %5, align 8
  %8 = load i32, ptr %4, align 4
  %9 = load ptr, ptr %5, align 8
  %10 = getelementptr inbounds nuw %struct.Node, ptr %9, i32 0, i32 0
  store i32 %8, ptr %10, align 4
  %11 = load ptr, ptr %5, align 8
  call void @llvm.lifetime.end.p0(i64 8, ptr %5) #8
  ret ptr %11
}

; Function Attrs: inlinehint nounwind uwtable
define internal ptr @TupleDescAttr(ptr noundef %0, i32 noundef %1) #4 {
  %3 = alloca ptr, align 8
  %4 = alloca i32, align 4
  %5 = alloca ptr, align 8
  store ptr %0, ptr %3, align 8
  store i32 %1, ptr %4, align 4
  call void @llvm.lifetime.start.p0(i64 8, ptr %5) #8
  %6 = load ptr, ptr %3, align 8
  %7 = load ptr, ptr %3, align 8
  %8 = getelementptr inbounds nuw %struct.TupleDescData, ptr %7, i32 0, i32 0
  %9 = load i32, ptr %8, align 8
  %10 = sext i32 %9 to i64
  %11 = mul i64 %10, 16
  %12 = add i64 24, %11
  %13 = getelementptr inbounds nuw i8, ptr %6, i64 %12
  store ptr %13, ptr %5, align 8
  %14 = load ptr, ptr %5, align 8
  %15 = load i32, ptr %4, align 4
  %16 = sext i32 %15 to i64
  %17 = getelementptr inbounds %struct.FormData_pg_attribute, ptr %14, i64 %16
  call void @llvm.lifetime.end.p0(i64 8, ptr %5) #8
  ret ptr %17
}

; Function Attrs: nounwind uwtable
define dso_local ptr @checkInsertTargets(ptr noundef %0, ptr noundef %1, ptr noundef %2) #0 {
  %4 = alloca ptr, align 8
  %5 = alloca ptr, align 8
  %6 = alloca ptr, align 8
  %7 = alloca i32, align 4
  %8 = alloca i32, align 4
  %9 = alloca ptr, align 8
  %10 = alloca ptr, align 8
  %11 = alloca i32, align 4
  %12 = alloca ptr, align 8
  %13 = alloca ptr, align 8
  %14 = alloca ptr, align 8
  %15 = alloca %struct.ForEachState, align 8
  %16 = alloca ptr, align 8
  %17 = alloca ptr, align 8
  %18 = alloca i32, align 4
  store ptr %0, ptr %4, align 8
  store ptr %1, ptr %5, align 8
  store ptr %2, ptr %6, align 8
  %19 = load ptr, ptr %6, align 8
  store ptr null, ptr %19, align 8
  %20 = load ptr, ptr %5, align 8
  %21 = icmp eq ptr %20, null
  br i1 %21, label %22, label %79

22:                                               ; preds = %3
  call void @llvm.lifetime.start.p0(i64 4, ptr %7) #8
  %23 = load ptr, ptr %4, align 8
  %24 = getelementptr inbounds nuw %struct.ParseState, ptr %23, i32 0, i32 14
  %25 = load ptr, ptr %24, align 8
  %26 = getelementptr inbounds nuw %struct.RelationData, ptr %25, i32 0, i32 13
  %27 = load ptr, ptr %26, align 8
  %28 = getelementptr inbounds nuw %struct.FormData_pg_class, ptr %27, i32 0, i32 17
  %29 = load i16, ptr %28, align 4
  %30 = sext i16 %29 to i32
  store i32 %30, ptr %7, align 4
  call void @llvm.lifetime.start.p0(i64 4, ptr %8) #8
  store i32 0, ptr %8, align 4
  br label %31

31:                                               ; preds = %75, %22
  %32 = load i32, ptr %8, align 4
  %33 = load i32, ptr %7, align 4
  %34 = icmp slt i32 %32, %33
  br i1 %34, label %35, label %78

35:                                               ; preds = %31
  call void @llvm.lifetime.start.p0(i64 8, ptr %9) #8
  call void @llvm.lifetime.start.p0(i64 8, ptr %10) #8
  %36 = load ptr, ptr %4, align 8
  %37 = getelementptr inbounds nuw %struct.ParseState, ptr %36, i32 0, i32 14
  %38 = load ptr, ptr %37, align 8
  %39 = getelementptr inbounds nuw %struct.RelationData, ptr %38, i32 0, i32 14
  %40 = load ptr, ptr %39, align 8
  %41 = load i32, ptr %8, align 4
  %42 = call ptr @TupleDescAttr(ptr noundef %40, i32 noundef %41)
  store ptr %42, ptr %10, align 8
  %43 = load ptr, ptr %10, align 8
  %44 = getelementptr inbounds nuw %struct.FormData_pg_attribute, ptr %43, i32 0, i32 16
  %45 = load i8, ptr %44, align 1, !range !4, !noundef !5
  %46 = trunc i8 %45 to i1
  br i1 %46, label %47, label %48

47:                                               ; preds = %35
  store i32 4, ptr %11, align 4
  br label %72

48:                                               ; preds = %35
  %49 = call ptr @newNode(i64 noundef 40, i32 noundef 81)
  store ptr %49, ptr %9, align 8
  %50 = load ptr, ptr %10, align 8
  %51 = getelementptr inbounds nuw %struct.FormData_pg_attribute, ptr %50, i32 0, i32 1
  %52 = getelementptr inbounds nuw %struct.nameData, ptr %51, i32 0, i32 0
  %53 = getelementptr inbounds [64 x i8], ptr %52, i64 0, i64 0
  %54 = call ptr @pstrdup(ptr noundef %53)
  %55 = load ptr, ptr %9, align 8
  %56 = getelementptr inbounds nuw %struct.ResTarget, ptr %55, i32 0, i32 1
  store ptr %54, ptr %56, align 8
  %57 = load ptr, ptr %9, align 8
  %58 = getelementptr inbounds nuw %struct.ResTarget, ptr %57, i32 0, i32 2
  store ptr null, ptr %58, align 8
  %59 = load ptr, ptr %9, align 8
  %60 = getelementptr inbounds nuw %struct.ResTarget, ptr %59, i32 0, i32 3
  store ptr null, ptr %60, align 8
  %61 = load ptr, ptr %9, align 8
  %62 = getelementptr inbounds nuw %struct.ResTarget, ptr %61, i32 0, i32 4
  store i32 -1, ptr %62, align 8
  %63 = load ptr, ptr %5, align 8
  %64 = load ptr, ptr %9, align 8
  %65 = call ptr @lappend(ptr noundef %63, ptr noundef %64)
  store ptr %65, ptr %5, align 8
  %66 = load ptr, ptr %6, align 8
  %67 = load ptr, ptr %66, align 8
  %68 = load i32, ptr %8, align 4
  %69 = add i32 %68, 1
  %70 = call ptr @lappend_int(ptr noundef %67, i32 noundef %69)
  %71 = load ptr, ptr %6, align 8
  store ptr %70, ptr %71, align 8
  store i32 0, ptr %11, align 4
  br label %72

72:                                               ; preds = %48, %47
  call void @llvm.lifetime.end.p0(i64 8, ptr %10) #8
  call void @llvm.lifetime.end.p0(i64 8, ptr %9) #8
  %73 = load i32, ptr %11, align 4
  switch i32 %73, label %223 [
    i32 0, label %74
    i32 4, label %75
  ]

74:                                               ; preds = %72
  br label %75

75:                                               ; preds = %74, %72
  %76 = load i32, ptr %8, align 4
  %77 = add i32 %76, 1
  store i32 %77, ptr %8, align 4
  br label %31, !llvm.loop !12

78:                                               ; preds = %31
  call void @llvm.lifetime.end.p0(i64 4, ptr %8) #8
  call void @llvm.lifetime.end.p0(i64 4, ptr %7) #8
  br label %221

79:                                               ; preds = %3
  call void @llvm.lifetime.start.p0(i64 8, ptr %12) #8
  store ptr null, ptr %12, align 8
  call void @llvm.lifetime.start.p0(i64 8, ptr %13) #8
  store ptr null, ptr %13, align 8
  call void @llvm.lifetime.start.p0(i64 8, ptr %14) #8
  call void @llvm.lifetime.start.p0(i64 16, ptr %15) #8
  %80 = getelementptr inbounds nuw %struct.ForEachState, ptr %15, i32 0, i32 0
  %81 = load ptr, ptr %5, align 8
  store ptr %81, ptr %80, align 8
  %82 = getelementptr inbounds nuw %struct.ForEachState, ptr %15, i32 0, i32 1
  store i32 0, ptr %82, align 8
  %83 = getelementptr i8, ptr %15, i64 12
  call void @llvm.memset.p0.i64(ptr align 4 %83, i8 0, i64 4, i1 false)
  br label %84

84:                                               ; preds = %216, %79
  %85 = getelementptr inbounds nuw %struct.ForEachState, ptr %15, i32 0, i32 0
  %86 = load ptr, ptr %85, align 8
  %87 = icmp ne ptr %86, null
  br i1 %87, label %88, label %105

88:                                               ; preds = %84
  %89 = getelementptr inbounds nuw %struct.ForEachState, ptr %15, i32 0, i32 1
  %90 = load i32, ptr %89, align 8
  %91 = getelementptr inbounds nuw %struct.ForEachState, ptr %15, i32 0, i32 0
  %92 = load ptr, ptr %91, align 8
  %93 = getelementptr inbounds nuw %struct.List, ptr %92, i32 0, i32 1
  %94 = load i32, ptr %93, align 4
  %95 = icmp slt i32 %90, %94
  br i1 %95, label %96, label %105

96:                                               ; preds = %88
  %97 = getelementptr inbounds nuw %struct.ForEachState, ptr %15, i32 0, i32 0
  %98 = load ptr, ptr %97, align 8
  %99 = getelementptr inbounds nuw %struct.List, ptr %98, i32 0, i32 3
  %100 = load ptr, ptr %99, align 8
  %101 = getelementptr inbounds nuw %struct.ForEachState, ptr %15, i32 0, i32 1
  %102 = load i32, ptr %101, align 8
  %103 = sext i32 %102 to i64
  %104 = getelementptr inbounds %union.ListCell, ptr %100, i64 %103
  store ptr %104, ptr %14, align 8
  br label %106

105:                                              ; preds = %88, %84
  store ptr null, ptr %14, align 8
  br label %106

106:                                              ; preds = %105, %96
  %107 = phi i32 [ 1, %96 ], [ 0, %105 ]
  %108 = icmp ne i32 %107, 0
  br i1 %108, label %110, label %109

109:                                              ; preds = %106
  store i32 5, ptr %11, align 4
  call void @llvm.lifetime.end.p0(i64 16, ptr %15) #8
  br label %220

110:                                              ; preds = %106
  call void @llvm.lifetime.start.p0(i64 8, ptr %16) #8
  %111 = load ptr, ptr %14, align 8
  %112 = load ptr, ptr %111, align 8
  store ptr %112, ptr %16, align 8
  call void @llvm.lifetime.start.p0(i64 8, ptr %17) #8
  %113 = load ptr, ptr %16, align 8
  %114 = getelementptr inbounds nuw %struct.ResTarget, ptr %113, i32 0, i32 1
  %115 = load ptr, ptr %114, align 8
  store ptr %115, ptr %17, align 8
  call void @llvm.lifetime.start.p0(i64 4, ptr %18) #8
  %116 = load ptr, ptr %4, align 8
  %117 = getelementptr inbounds nuw %struct.ParseState, ptr %116, i32 0, i32 14
  %118 = load ptr, ptr %117, align 8
  %119 = load ptr, ptr %17, align 8
  %120 = call i32 @attnameAttNum(ptr noundef %118, ptr noundef %119, i1 noundef zeroext false)
  store i32 %120, ptr %18, align 4
  %121 = load i32, ptr %18, align 4
  %122 = icmp eq i32 %121, 0
  br i1 %122, label %123, label %149

123:                                              ; preds = %110
  br label %124

124:                                              ; preds = %123
  br i1 true, label %125, label %127

125:                                              ; preds = %124
  %126 = call zeroext i1 @errstart_cold(i32 noundef 21, ptr noundef null) #10
  br i1 %126, label %129, label %146

127:                                              ; preds = %124
  %128 = call zeroext i1 @errstart(i32 noundef 21, ptr noundef null)
  br i1 %128, label %129, label %146

129:                                              ; preds = %127, %125
  %130 = call i32 @errcode(i32 noundef 50360452)
  %131 = load ptr, ptr %17, align 8
  %132 = load ptr, ptr %4, align 8
  %133 = getelementptr inbounds nuw %struct.ParseState, ptr %132, i32 0, i32 14
  %134 = load ptr, ptr %133, align 8
  %135 = getelementptr inbounds nuw %struct.RelationData, ptr %134, i32 0, i32 13
  %136 = load ptr, ptr %135, align 8
  %137 = getelementptr inbounds nuw %struct.FormData_pg_class, ptr %136, i32 0, i32 1
  %138 = getelementptr inbounds nuw %struct.nameData, ptr %137, i32 0, i32 0
  %139 = getelementptr inbounds [64 x i8], ptr %138, i64 0, i64 0
  %140 = call i32 (ptr, ...) @errmsg(ptr noundef @.str.11, ptr noundef %131, ptr noundef %139)
  %141 = load ptr, ptr %4, align 8
  %142 = load ptr, ptr %16, align 8
  %143 = getelementptr inbounds nuw %struct.ResTarget, ptr %142, i32 0, i32 4
  %144 = load i32, ptr %143, align 8
  %145 = call i32 @parser_errposition(ptr noundef %141, i32 noundef %144)
  call void @errfinish(ptr noundef @.str.1, i32 noundef 1073, ptr noundef @__func__.checkInsertTargets)
  br label %146

146:                                              ; preds = %129, %127, %125
  unreachable

147:                                              ; No predecessors!
  br label %148

148:                                              ; preds = %147
  br label %149

149:                                              ; preds = %148, %110
  %150 = load ptr, ptr %16, align 8
  %151 = getelementptr inbounds nuw %struct.ResTarget, ptr %150, i32 0, i32 2
  %152 = load ptr, ptr %151, align 8
  %153 = icmp eq ptr %152, null
  br i1 %153, label %154, label %184

154:                                              ; preds = %149
  %155 = load i32, ptr %18, align 4
  %156 = load ptr, ptr %12, align 8
  %157 = call zeroext i1 @bms_is_member(i32 noundef %155, ptr noundef %156)
  br i1 %157, label %162, label %158

158:                                              ; preds = %154
  %159 = load i32, ptr %18, align 4
  %160 = load ptr, ptr %13, align 8
  %161 = call zeroext i1 @bms_is_member(i32 noundef %159, ptr noundef %160)
  br i1 %161, label %162, label %180

162:                                              ; preds = %158, %154
  br label %163

163:                                              ; preds = %162
  br i1 true, label %164, label %166

164:                                              ; preds = %163
  %165 = call zeroext i1 @errstart_cold(i32 noundef 21, ptr noundef null) #10
  br i1 %165, label %168, label %177

166:                                              ; preds = %163
  %167 = call zeroext i1 @errstart(i32 noundef 21, ptr noundef null)
  br i1 %167, label %168, label %177

168:                                              ; preds = %166, %164
  %169 = call i32 @errcode(i32 noundef 16806020)
  %170 = load ptr, ptr %17, align 8
  %171 = call i32 (ptr, ...) @errmsg(ptr noundef @.str.12, ptr noundef %170)
  %172 = load ptr, ptr %4, align 8
  %173 = load ptr, ptr %16, align 8
  %174 = getelementptr inbounds nuw %struct.ResTarget, ptr %173, i32 0, i32 4
  %175 = load i32, ptr %174, align 8
  %176 = call i32 @parser_errposition(ptr noundef %172, i32 noundef %175)
  call void @errfinish(ptr noundef @.str.1, i32 noundef 1088, ptr noundef @__func__.checkInsertTargets)
  br label %177

177:                                              ; preds = %168, %166, %164
  unreachable

178:                                              ; No predecessors!
  br label %179

179:                                              ; preds = %178
  br label %180

180:                                              ; preds = %179, %158
  %181 = load ptr, ptr %12, align 8
  %182 = load i32, ptr %18, align 4
  %183 = call ptr @bms_add_member(ptr noundef %181, i32 noundef %182)
  store ptr %183, ptr %12, align 8
  br label %210

184:                                              ; preds = %149
  %185 = load i32, ptr %18, align 4
  %186 = load ptr, ptr %12, align 8
  %187 = call zeroext i1 @bms_is_member(i32 noundef %185, ptr noundef %186)
  br i1 %187, label %188, label %206

188:                                              ; preds = %184
  br label %189

189:                                              ; preds = %188
  br i1 true, label %190, label %192

190:                                              ; preds = %189
  %191 = call zeroext i1 @errstart_cold(i32 noundef 21, ptr noundef null) #10
  br i1 %191, label %194, label %203

192:                                              ; preds = %189
  %193 = call zeroext i1 @errstart(i32 noundef 21, ptr noundef null)
  br i1 %193, label %194, label %203

194:                                              ; preds = %192, %190
  %195 = call i32 @errcode(i32 noundef 16806020)
  %196 = load ptr, ptr %17, align 8
  %197 = call i32 (ptr, ...) @errmsg(ptr noundef @.str.12, ptr noundef %196)
  %198 = load ptr, ptr %4, align 8
  %199 = load ptr, ptr %16, align 8
  %200 = getelementptr inbounds nuw %struct.ResTarget, ptr %199, i32 0, i32 4
  %201 = load i32, ptr %200, align 8
  %202 = call i32 @parser_errposition(ptr noundef %198, i32 noundef %201)
  call void @errfinish(ptr noundef @.str.1, i32 noundef 1099, ptr noundef @__func__.checkInsertTargets)
  br label %203

203:                                              ; preds = %194, %192, %190
  unreachable

204:                                              ; No predecessors!
  br label %205

205:                                              ; preds = %204
  br label %206

206:                                              ; preds = %205, %184
  %207 = load ptr, ptr %13, align 8
  %208 = load i32, ptr %18, align 4
  %209 = call ptr @bms_add_member(ptr noundef %207, i32 noundef %208)
  store ptr %209, ptr %13, align 8
  br label %210

210:                                              ; preds = %206, %180
  %211 = load ptr, ptr %6, align 8
  %212 = load ptr, ptr %211, align 8
  %213 = load i32, ptr %18, align 4
  %214 = call ptr @lappend_int(ptr noundef %212, i32 noundef %213)
  %215 = load ptr, ptr %6, align 8
  store ptr %214, ptr %215, align 8
  call void @llvm.lifetime.end.p0(i64 4, ptr %18) #8
  call void @llvm.lifetime.end.p0(i64 8, ptr %17) #8
  call void @llvm.lifetime.end.p0(i64 8, ptr %16) #8
  br label %216

216:                                              ; preds = %210
  %217 = getelementptr inbounds nuw %struct.ForEachState, ptr %15, i32 0, i32 1
  %218 = load i32, ptr %217, align 8
  %219 = add i32 %218, 1
  store i32 %219, ptr %217, align 8
  br label %84, !llvm.loop !13

220:                                              ; preds = %109
  call void @llvm.lifetime.end.p0(i64 8, ptr %14) #8
  call void @llvm.lifetime.end.p0(i64 8, ptr %13) #8
  call void @llvm.lifetime.end.p0(i64 8, ptr %12) #8
  br label %221

221:                                              ; preds = %220, %78
  %222 = load ptr, ptr %5, align 8
  ret ptr %222

223:                                              ; preds = %72
  unreachable
}