; Function Attrs: nounwind uwtable
define dso_local ptr @checkInsertTargets(ptr noundef %0, ptr noundef readonly captures(address_is_null, ret: address, provenance) %1, ptr noundef captures(none) initializes((0, 8)) %2) local_unnamed_addr #0 {
  store ptr null, ptr %2, align 8
  %4 = icmp eq ptr %1, null
  br i1 %4, label %9, label %.preheader

.preheader:                                       ; preds = %3
  %5 = getelementptr inbounds nuw i8, ptr %1, i64 4
  %6 = load i32, ptr %5, align 4
  %.not73 = icmp sgt i32 %6, 0
  br i1 %.not73, label %.lr.ph, label %.loopexit

.lr.ph:                                           ; preds = %.preheader
  %7 = getelementptr inbounds nuw i8, ptr %1, i64 16
  %8 = getelementptr inbounds nuw i8, ptr %0, i64 104
  br label %42

9:                                                ; preds = %3
  %10 = getelementptr inbounds nuw i8, ptr %0, i64 104
  %11 = load ptr, ptr %10, align 8
  %12 = getelementptr inbounds nuw i8, ptr %11, i64 56
  %13 = load ptr, ptr %12, align 8
  %14 = getelementptr inbounds nuw i8, ptr %13, i64 116
  %15 = load i16, ptr %14, align 4
  %16 = icmp sgt i16 %15, 0
  br i1 %16, label %.lr.ph79.preheader, label %.loopexit

.lr.ph79.preheader:                               ; preds = %9
  %wide.trip.count = zext nneg i16 %15 to i64
  br label %.lr.ph79

.lr.ph79:                                         ; preds = %.lr.ph79.preheader, %41
  %indvars.iv89 = phi i64 [ 0, %.lr.ph79.preheader ], [ %indvars.iv.next90.pre-phi, %41 ]
  %.078 = phi ptr [ null, %.lr.ph79.preheader ], [ %.1, %41 ]
  %17 = load ptr, ptr %10, align 8
  %18 = getelementptr inbounds nuw i8, ptr %17, i64 64
  %19 = load ptr, ptr %18, align 8
  %20 = load i32, ptr %19, align 8
  %21 = sext i32 %20 to i64
  %22 = shl nsw i64 %21, 4
  %23 = getelementptr i8, ptr %19, i64 %22
  %24 = getelementptr i8, ptr %23, i64 24
  %25 = getelementptr inbounds nuw %struct.FormData_pg_attribute, ptr %24, i64 %indvars.iv89
  %26 = getelementptr inbounds nuw i8, ptr %25, i64 91
  %27 = load i8, ptr %26, align 1, !range !4, !noundef !5
  %28 = trunc nuw i8 %27 to i1
  br i1 %28, label %.lr.ph79._crit_edge, label %29

.lr.ph79._crit_edge:                              ; preds = %.lr.ph79
  %.pre = add nuw nsw i64 %indvars.iv89, 1
  br label %41

29:                                               ; preds = %.lr.ph79
  %30 = tail call noundef ptr @palloc0(i64 noundef 40) #8
  store i32 81, ptr %30, align 4
  %31 = getelementptr inbounds nuw i8, ptr %25, i64 4
  %32 = tail call ptr @pstrdup(ptr noundef nonnull %31) #8
  %33 = getelementptr inbounds nuw i8, ptr %30, i64 8
  store ptr %32, ptr %33, align 8
  %34 = getelementptr inbounds nuw i8, ptr %30, i64 16
  %35 = getelementptr inbounds nuw i8, ptr %30, i64 32
  tail call void @llvm.memset.p0.i64(ptr noundef nonnull align 8 dereferenceable(16) %34, i8 0, i64 16, i1 false)
  store i32 -1, ptr %35, align 8
  %36 = tail call ptr @lappend(ptr noundef %.078, ptr noundef nonnull %30) #8
  %37 = load ptr, ptr %2, align 8
  %38 = add nuw nsw i64 %indvars.iv89, 1
  %39 = trunc nuw nsw i64 %38 to i32
  %40 = tail call ptr @lappend_int(ptr noundef %37, i32 noundef %39) #8
  store ptr %40, ptr %2, align 8
  br label %41

41:                                               ; preds = %.lr.ph79._crit_edge, %29
  %indvars.iv.next90.pre-phi = phi i64 [ %.pre, %.lr.ph79._crit_edge ], [ %38, %29 ]
  %.1 = phi ptr [ %.078, %.lr.ph79._crit_edge ], [ %36, %29 ]
  %exitcond.not = icmp eq i64 %indvars.iv.next90.pre-phi, %wide.trip.count
  br i1 %exitcond.not, label %.loopexit, label %.lr.ph79, !llvm.loop !6

42:                                               ; preds = %.lr.ph, %89
  %indvars.iv = phi i64 [ 0, %.lr.ph ], [ %indvars.iv.next, %89 ]
  %.05476 = phi ptr [ null, %.lr.ph ], [ %.155, %89 ]
  %.05674 = phi ptr [ null, %.lr.ph ], [ %.157, %89 ]
  %43 = load ptr, ptr %7, align 8
  %44 = getelementptr inbounds nuw %union.ListCell, ptr %43, i64 %indvars.iv
  %45 = load ptr, ptr %44, align 8
  %46 = getelementptr inbounds nuw i8, ptr %45, i64 8
  %47 = load ptr, ptr %46, align 8
  %48 = load ptr, ptr %8, align 8
  %49 = tail call i32 @attnameAttNum(ptr noundef %48, ptr noundef %47, i1 noundef zeroext false) #8
  %50 = icmp eq i32 %49, 0
  br i1 %50, label %51, label %62

51:                                               ; preds = %42
  %52 = tail call zeroext i1 @errstart_cold(i32 noundef 21, ptr noundef null) #9
  tail call void @llvm.assume(i1 %52)
  %53 = tail call i32 @errcode(i32 noundef 50360452) #8
  %54 = load ptr, ptr %8, align 8
  %55 = getelementptr inbounds nuw i8, ptr %54, i64 56
  %56 = load ptr, ptr %55, align 8
  %57 = getelementptr inbounds nuw i8, ptr %56, i64 4
  %58 = tail call i32 (ptr, ...) @errmsg(ptr noundef nonnull @.str.11, ptr noundef %47, ptr noundef nonnull %57) #8
  %59 = getelementptr inbounds nuw i8, ptr %45, i64 32
  %60 = load i32, ptr %59, align 8
  %61 = tail call i32 @parser_errposition(ptr noundef nonnull %0, i32 noundef %60) #8
  tail call void @errfinish(ptr noundef nonnull @.str.1, i32 noundef 1073, ptr noundef nonnull @__func__.checkInsertTargets) #8
  unreachable

62:                                               ; preds = %42
  %63 = getelementptr inbounds nuw i8, ptr %45, i64 16
  %64 = load ptr, ptr %63, align 8
  %65 = icmp eq ptr %64, null
  %66 = tail call zeroext i1 @bms_is_member(i32 noundef %49, ptr noundef %.05476) #8
  br i1 %65, label %67, label %79

67:                                               ; preds = %62
  br i1 %66, label %70, label %68

68:                                               ; preds = %67
  %69 = tail call zeroext i1 @bms_is_member(i32 noundef %49, ptr noundef %.05674) #8
  br i1 %69, label %70, label %77

70:                                               ; preds = %68, %67
  %71 = tail call zeroext i1 @errstart_cold(i32 noundef 21, ptr noundef null) #9
  tail call void @llvm.assume(i1 %71)
  %72 = tail call i32 @errcode(i32 noundef 16806020) #8
  %73 = tail call i32 (ptr, ...) @errmsg(ptr noundef nonnull @.str.12, ptr noundef %47) #8
  %74 = getelementptr inbounds nuw i8, ptr %45, i64 32
  %75 = load i32, ptr %74, align 8
  %76 = tail call i32 @parser_errposition(ptr noundef nonnull %0, i32 noundef %75) #8
  tail call void @errfinish(ptr noundef nonnull @.str.1, i32 noundef 1088, ptr noundef nonnull @__func__.checkInsertTargets) #8
  unreachable

77:                                               ; preds = %68
  %78 = tail call ptr @bms_add_member(ptr noundef %.05476, i32 noundef %49) #8
  br label %89

79:                                               ; preds = %62
  br i1 %66, label %80, label %87

80:                                               ; preds = %79
  %81 = tail call zeroext i1 @errstart_cold(i32 noundef 21, ptr noundef null) #9
  tail call void @llvm.assume(i1 %81)
  %82 = tail call i32 @errcode(i32 noundef 16806020) #8
  %83 = tail call i32 (ptr, ...) @errmsg(ptr noundef nonnull @.str.12, ptr noundef %47) #8
  %84 = getelementptr inbounds nuw i8, ptr %45, i64 32
  %85 = load i32, ptr %84, align 8
  %86 = tail call i32 @parser_errposition(ptr noundef nonnull %0, i32 noundef %85) #8
  tail call void @errfinish(ptr noundef nonnull @.str.1, i32 noundef 1099, ptr noundef nonnull @__func__.checkInsertTargets) #8
  unreachable

87:                                               ; preds = %79
  %88 = tail call ptr @bms_add_member(ptr noundef %.05674, i32 noundef %49) #8
  br label %89

89:                                               ; preds = %87, %77
  %.157 = phi ptr [ %.05674, %77 ], [ %88, %87 ]
  %.155 = phi ptr [ %78, %77 ], [ %.05476, %87 ]
  %90 = load ptr, ptr %2, align 8
  %91 = tail call ptr @lappend_int(ptr noundef %90, i32 noundef %49) #8
  store ptr %91, ptr %2, align 8
  %indvars.iv.next = add nuw nsw i64 %indvars.iv, 1
  %92 = load i32, ptr %5, align 4
  %93 = sext i32 %92 to i64
  %.not = icmp slt i64 %indvars.iv.next, %93
  br i1 %.not, label %42, label %.loopexit, !llvm.loop !8

.loopexit:                                        ; preds = %89, %41, %.preheader, %9
  %.2 = phi ptr [ null, %9 ], [ %1, %.preheader ], [ %.1, %41 ], [ %1, %89 ]
  ret ptr %.2
}